; Function Attrs: nounwind uwtable
define hidden noundef signext i8 @nfaExecLimEx32_reportCurrent(ptr noundef readonly captures(none) %0, ptr noundef readonly captures(none) %1) local_unnamed_addr #0 {
  %3 = getelementptr inbounds nuw i8, ptr %1, i64 16
  %4 = load ptr, ptr %3, align 8
  %5 = load i32, ptr %4, align 4
  %6 = getelementptr inbounds nuw i8, ptr %0, i64 404
  %7 = load i32, ptr %6, align 4
  %8 = and i32 %7, %5
  %.not.i = icmp eq i32 %8, 0
  br i1 %.not.i, label %moNfaReportCurrent32.exit, label %9, !prof !5

9:                                                ; preds = %2
  %10 = getelementptr inbounds nuw i8, ptr %0, i64 64
  %11 = getelementptr inbounds nuw i8, ptr %0, i64 344
  %12 = load i32, ptr %11, align 8
  %13 = zext i32 %12 to i64
  %14 = getelementptr inbounds nuw i8, ptr %10, i64 %13
  %15 = getelementptr inbounds nuw i8, ptr %1, i64 32
  %16 = load i64, ptr %15, align 8
  %17 = getelementptr inbounds nuw i8, ptr %1, i64 8
  %18 = load i32, ptr %17, align 8
  %19 = zext i32 %18 to i64
  %.idx.i = mul nuw nsw i64 %19, 24
  %20 = getelementptr i8, ptr %1, i64 112
  %21 = getelementptr i8, ptr %20, i64 %.idx.i
  %22 = load i64, ptr %21, align 8
  %23 = add i64 %22, %16
  %24 = getelementptr inbounds nuw i8, ptr %1, i64 88
  %25 = load ptr, ptr %24, align 8
  %26 = getelementptr inbounds nuw i8, ptr %1, i64 96
  %27 = load ptr, ptr %26, align 8
  %28 = tail call fastcc signext i8 @moProcessAcceptsNoSquash32(ptr noundef nonnull %10, i32 %8, i32 %7, ptr noundef nonnull %14, i64 noundef %23, ptr noundef %25, ptr noundef %27)
  br label %moNfaReportCurrent32.exit

moNfaReportCurrent32.exit:                        ; preds = %9, %2
  ret i8 1
}